; Function Attrs: mustprogress nofree norecurse nosync nounwind willreturn memory(argmem: readwrite) uwtable
define hidden void @VP8LBitWriterReset(ptr noundef readonly captures(none) %0, ptr noundef captures(none) initializes((0, 12), (24, 32), (40, 44)) %1) local_unnamed_addr #5 {
  %3 = load i64, ptr %0, align 8, !tbaa !27
  store i64 %3, ptr %1, align 8, !tbaa !27
  %4 = getelementptr inbounds nuw i8, ptr %0, i64 8
  %5 = load i32, ptr %4, align 8, !tbaa !28
  %6 = getelementptr inbounds nuw i8, ptr %1, i64 8
  store i32 %5, ptr %6, align 8, !tbaa !28
  %7 = getelementptr inbounds nuw i8, ptr %1, i64 16
  %8 = load ptr, ptr %7, align 8, !tbaa !24
  %9 = getelementptr inbounds nuw i8, ptr %0, i64 24
  %10 = load ptr, ptr %9, align 8, !tbaa !25
  %11 = getelementptr inbounds nuw i8, ptr %0, i64 16
  %12 = load ptr, ptr %11, align 8, !tbaa !24
  %13 = ptrtoint ptr %10 to i64
  %14 = ptrtoint ptr %12 to i64
  %15 = sub i64 %13, %14
  %16 = getelementptr inbounds i8, ptr %8, i64 %15
  %17 = getelementptr inbounds nuw i8, ptr %1, i64 24
  store ptr %16, ptr %17, align 8, !tbaa !25
  %18 = getelementptr inbounds nuw i8, ptr %0, i64 40
  %19 = load i32, ptr %18, align 8, !tbaa !22
  %20 = getelementptr inbounds nuw i8, ptr %1, i64 40
  store i32 %19, ptr %20, align 8, !tbaa !22
  ret void
}